; Function Attrs: nofree norecurse nosync nounwind memory(argmem: readwrite) uwtable
define void @av_md5_sum(ptr noundef writeonly captures(none) %0, ptr noundef %1, i64 noundef %2) local_unnamed_addr #3 {
  %4 = alloca %struct.AVMD5, align 8
  call void @llvm.lifetime.start.p0(i64 88, ptr nonnull %4) #7
  %5 = getelementptr inbounds nuw i8, ptr %4, i64 72
  store i32 271733878, ptr %5, align 8, !tbaa !9
  %6 = getelementptr inbounds nuw i8, ptr %4, i64 76
  store i32 -1732584194, ptr %6, align 4, !tbaa !9
  %7 = getelementptr inbounds nuw i8, ptr %4, i64 80
  store i32 -271733879, ptr %7, align 8, !tbaa !9
  %8 = getelementptr inbounds nuw i8, ptr %4, i64 84
  store i32 1732584193, ptr %8, align 4, !tbaa !9
  store i64 %2, ptr %4, align 8, !tbaa !4
  %9 = and i64 %2, -64
  %10 = getelementptr inbounds nuw i8, ptr %1, i64 %9
  %11 = ptrtoint ptr %1 to i64
  %12 = and i64 %11, 3
  %.not44.i = icmp eq i64 %12, 0
  br i1 %.not44.i, label %17, label %.preheader.i

.preheader.i:                                     ; preds = %3
  %.not47.i = icmp eq i64 %9, 0
  br i1 %.not47.i, label %.loopexit.i, label %.lr.ph.i

.lr.ph.i:                                         ; preds = %.preheader.i
  %13 = getelementptr inbounds nuw i8, ptr %4, i64 8
  br label %14

14:                                               ; preds = %14, %.lr.ph.i
  %.146.i = phi ptr [ %1, %.lr.ph.i ], [ %15, %14 ]
  call void @llvm.memcpy.p0.p0.i64(ptr noundef nonnull align 8 dereferenceable(64) %13, ptr noundef nonnull align 1 dereferenceable(64) %.146.i, i64 64, i1 false)
  call fastcc void @body(ptr noundef nonnull %5, ptr noundef nonnull %13, i64 noundef 1)
  %15 = getelementptr inbounds nuw i8, ptr %.146.i, i64 64
  %16 = icmp ult ptr %15, %10
  br i1 %16, label %14, label %.loopexit.i, !llvm.loop !11

17:                                               ; preds = %3
  %18 = lshr i64 %2, 6
  call fastcc void @body(ptr noundef nonnull %5, ptr noundef %1, i64 noundef %18)
  br label %.loopexit.i

.loopexit.i:                                      ; preds = %14, %17, %.preheader.i
  %.2.i = phi ptr [ %10, %17 ], [ %1, %.preheader.i ], [ %15, %14 ]
  %19 = and i64 %2, 63
  %.not45.i = icmp eq i64 %19, 0
  br i1 %.not45.i, label %av_md5_update.exit, label %20

20:                                               ; preds = %.loopexit.i
  %21 = getelementptr inbounds nuw i8, ptr %4, i64 8
  call void @llvm.memcpy.p0.p0.i64(ptr nonnull align 8 %21, ptr align 1 %.2.i, i64 %19, i1 false)
  br label %av_md5_update.exit

av_md5_update.exit:                               ; preds = %.loopexit.i, %20
  call void @av_md5_final(ptr noundef nonnull %4, ptr noundef %0)
  call void @llvm.lifetime.end.p0(i64 88, ptr nonnull %4) #7
  ret void
}